target datalayout = "e-m:e-p270:32:32-p271:32:32-p272:64:64-i64:64-i128:128-f80:128-n8:16:32:64-S128"
target triple = "x86_64-pc-linux-gnu"

%struct.AVDictionaryEntry = type { ptr, ptr }
%struct.tm = type { i32, i32, i32, i32, i32, i32, i32, i32, i32, i64, ptr }

@.str.55 = private unnamed_addr constant [8 x i8] c"expires\00", align 1

; Function Attrs: nounwind uwtable
define internal i32 @parse_cookie(ptr noundef %0, ptr noundef %1, ptr noundef %2) #0 {
  %4 = alloca i32, align 4
  %5 = alloca ptr, align 8
  %6 = alloca ptr, align 8
  %7 = alloca ptr, align 8
  %8 = alloca ptr, align 8
  %9 = alloca ptr, align 8
  %10 = alloca ptr, align 8
  %11 = alloca ptr, align 8
  %12 = alloca ptr, align 8
  %13 = alloca i32, align 4
  %14 = alloca %struct.tm, align 8
  %15 = alloca ptr, align 8
  %16 = alloca ptr, align 8
  %17 = alloca %struct.tm, align 8
  store ptr %0, ptr %5, align 8, !tbaa !21
  store ptr %1, ptr %6, align 8, !tbaa !17
  store ptr %2, ptr %7, align 8, !tbaa !18
  call void @llvm.lifetime.start.p0(i64 8, ptr %8) #11
  store ptr null, ptr %8, align 8, !tbaa !23
  call void @llvm.lifetime.start.p0(i64 8, ptr %9) #11
  call void @llvm.lifetime.start.p0(i64 8, ptr %10) #11
  call void @llvm.lifetime.start.p0(i64 8, ptr %11) #11
  call void @llvm.lifetime.start.p0(i64 8, ptr %12) #11
  %18 = load ptr, ptr %6, align 8, !tbaa !17
  %19 = call i32 @parse_set_cookie(ptr noundef %18, ptr noundef %8)
  %20 = icmp ne i32 %19, 0
  br i1 %20, label %21, label %22

21:                                               ; preds = %3
  store i32 -1, ptr %4, align 4
  store i32 1, ptr %13, align 4
  br label %131

22:                                               ; preds = %3
  %23 = load ptr, ptr %8, align 8, !tbaa !23
  %24 = call ptr @av_dict_iterate(ptr noundef %23, ptr noundef null)
  store ptr %24, ptr %10, align 8, !tbaa !84
  %25 = load ptr, ptr %10, align 8, !tbaa !84
  %26 = icmp ne ptr %25, null
  br i1 %26, label %27, label %32

27:                                               ; preds = %22
  %28 = load ptr, ptr %10, align 8, !tbaa !84
  %29 = getelementptr inbounds nuw %struct.AVDictionaryEntry, ptr %28, i32 0, i32 1
  %30 = load ptr, ptr %29, align 8, !tbaa !86
  %31 = icmp ne ptr %30, null
  br i1 %31, label %33, label %32

32:                                               ; preds = %27, %22
  call void @av_dict_free(ptr noundef %8)
  store i32 -1, ptr %4, align 4
  store i32 1, ptr %13, align 4
  br label %131

33:                                               ; preds = %27
  %34 = load ptr, ptr %8, align 8, !tbaa !23
  %35 = call ptr @av_dict_get(ptr noundef %34, ptr noundef @.str.55, ptr noundef null, i32 noundef 0)
  store ptr %35, ptr %9, align 8, !tbaa !84
  %36 = icmp ne ptr %35, null
  br i1 %36, label %37, label %111

37:                                               ; preds = %33
  %38 = load ptr, ptr %9, align 8, !tbaa !84
  %39 = getelementptr inbounds nuw %struct.AVDictionaryEntry, ptr %38, i32 0, i32 1
  %40 = load ptr, ptr %39, align 8, !tbaa !86
  %41 = icmp ne ptr %40, null
  br i1 %41, label %42, label %111

42:                                               ; preds = %37
  call void @llvm.lifetime.start.p0(i64 56, ptr %14) #11
  call void @llvm.memset.p0.i64(ptr align 8 %14, i8 0, i64 56, i1 false)
  %43 = load ptr, ptr %9, align 8, !tbaa !84
  %44 = getelementptr inbounds nuw %struct.AVDictionaryEntry, ptr %43, i32 0, i32 1
  %45 = load ptr, ptr %44, align 8, !tbaa !86
  %46 = call i32 @parse_http_date(ptr noundef %45, ptr noundef %14)
  %47 = icmp ne i32 %46, 0
  br i1 %47, label %107, label %48

48:                                               ; preds = %42
  call void @llvm.lifetime.start.p0(i64 8, ptr %15) #11
  %49 = call i64 @av_timegm(ptr noundef %14)
  %50 = call i64 @av_gettime()
  %51 = sdiv i64 %50, 1000000
  %52 = icmp slt i64 %49, %51
  br i1 %52, label %53, label %54

53:                                               ; preds = %48
  call void @av_dict_free(ptr noundef %8)
  store i32 0, ptr %4, align 4
  store i32 1, ptr %13, align 4
  br label %104

54:                                               ; preds = %48
  %55 = load ptr, ptr %7, align 8, !tbaa !18
  %56 = load ptr, ptr %55, align 8, !tbaa !23
  %57 = load ptr, ptr %10, align 8, !tbaa !84
  %58 = getelementptr inbounds nuw %struct.AVDictionaryEntry, ptr %57, i32 0, i32 0
  %59 = load ptr, ptr %58, align 8, !tbaa !111
  %60 = call ptr @av_dict_get(ptr noundef %56, ptr noundef %59, ptr noundef null, i32 noundef 0)
  store ptr %60, ptr %15, align 8, !tbaa !84
  %61 = load ptr, ptr %15, align 8, !tbaa !84
  %62 = icmp ne ptr %61, null
  br i1 %62, label %63, label %103

63:                                               ; preds = %54
  %64 = load ptr, ptr %15, align 8, !tbaa !84
  %65 = getelementptr inbounds nuw %struct.AVDictionaryEntry, ptr %64, i32 0, i32 1
  %66 = load ptr, ptr %65, align 8, !tbaa !86
  %67 = icmp ne ptr %66, null
  br i1 %67, label %68, label %103

68:                                               ; preds = %63
  call void @llvm.lifetime.start.p0(i64 8, ptr %16) #11
  store ptr null, ptr %16, align 8, !tbaa !23
  %69 = load ptr, ptr %6, align 8, !tbaa !17
  %70 = call i32 @parse_set_cookie(ptr noundef %69, ptr noundef %16)
  %71 = icmp ne i32 %70, 0
  br i1 %71, label %99, label %72

72:                                               ; preds = %68
  %73 = load ptr, ptr %16, align 8, !tbaa !23
  %74 = call ptr @av_dict_get(ptr noundef %73, ptr noundef @.str.55, ptr noundef null, i32 noundef 0)
  store ptr %74, ptr %15, align 8, !tbaa !84
  %75 = load ptr, ptr %15, align 8, !tbaa !84
  %76 = icmp ne ptr %75, null
  br i1 %76, label %77, label %98

77:                                               ; preds = %72
  %78 = load ptr, ptr %15, align 8, !tbaa !84
  %79 = getelementptr inbounds nuw %struct.AVDictionaryEntry, ptr %78, i32 0, i32 1
  %80 = load ptr, ptr %79, align 8, !tbaa !86
  %81 = icmp ne ptr %80, null
  br i1 %81, label %82, label %98

82:                                               ; preds = %77
  call void @llvm.lifetime.start.p0(i64 56, ptr %17) #11
  call void @llvm.memset.p0.i64(ptr align 8 %17, i8 0, i64 56, i1 false)
  %83 = load ptr, ptr %9, align 8, !tbaa !84
  %84 = getelementptr inbounds nuw %struct.AVDictionaryEntry, ptr %83, i32 0, i32 1
  %85 = load ptr, ptr %84, align 8, !tbaa !86
  %86 = call i32 @parse_http_date(ptr noundef %85, ptr noundef %17)
  %87 = icmp ne i32 %86, 0
  br i1 %87, label %94, label %88

88:                                               ; preds = %82
  %89 = call i64 @av_timegm(ptr noundef %14)
  %90 = call i64 @av_timegm(ptr noundef %17)
  %91 = icmp slt i64 %89, %90
  br i1 %91, label %92, label %93

92:                                               ; preds = %88
  call void @av_dict_free(ptr noundef %8)
  call void @av_dict_free(ptr noundef %16)
  store i32 -1, ptr %4, align 4
  store i32 1, ptr %13, align 4
  br label %95

93:                                               ; preds = %88
  br label %94

94:                                               ; preds = %93, %82
  store i32 0, ptr %13, align 4
  br label %95

95:                                               ; preds = %94, %92
  call void @llvm.lifetime.end.p0(i64 56, ptr %17) #11
  %96 = load i32, ptr %13, align 4
  switch i32 %96, label %100 [
    i32 0, label %97
  ]

97:                                               ; preds = %95
  br label %98

98:                                               ; preds = %97, %77, %72
  br label %99

99:                                               ; preds = %98, %68
  call void @av_dict_free(ptr noundef %16)
  store i32 0, ptr %13, align 4
  br label %100

100:                                              ; preds = %99, %95
  call void @llvm.lifetime.end.p0(i64 8, ptr %16) #11
  %101 = load i32, ptr %13, align 4
  switch i32 %101, label %104 [
    i32 0, label %102
  ]

102:                                              ; preds = %100
  br label %103

103:                                              ; preds = %102, %63, %54
  store i32 0, ptr %13, align 4
  br label %104

104:                                              ; preds = %103, %100, %53
  call void @llvm.lifetime.end.p0(i64 8, ptr %15) #11
  %105 = load i32, ptr %13, align 4
  switch i32 %105, label %108 [
    i32 0, label %106
  ]

106:                                              ; preds = %104
  br label %107

107:                                              ; preds = %106, %42
  store i32 0, ptr %13, align 4
  br label %108

108:                                              ; preds = %107, %104
  call void @llvm.lifetime.end.p0(i64 56, ptr %14) #11
  %109 = load i32, ptr %13, align 4
  switch i32 %109, label %131 [
    i32 0, label %110
  ]

110:                                              ; preds = %108
  br label %111

111:                                              ; preds = %110, %37, %33
  call void @av_dict_free(ptr noundef %8)
  %112 = load ptr, ptr %6, align 8, !tbaa !17
  %113 = call ptr @strchr(ptr noundef %112, i32 noundef 61) #12
  store ptr %113, ptr %11, align 8, !tbaa !17
  %114 = icmp ne ptr %113, null
  br i1 %114, label %116, label %115

115:                                              ; preds = %111
  store i32 -22, ptr %4, align 4
  store i32 1, ptr %13, align 4
  br label %131

116:                                              ; preds = %111
  %117 = load ptr, ptr %6, align 8, !tbaa !17
  %118 = load ptr, ptr %11, align 8, !tbaa !17
  %119 = load ptr, ptr %6, align 8, !tbaa !17
  %120 = ptrtoint ptr %118 to i64
  %121 = ptrtoint ptr %119 to i64
  %122 = sub i64 %120, %121
  %123 = call noalias ptr @av_strndup(ptr noundef %117, i64 noundef %122)
  store ptr %123, ptr %12, align 8, !tbaa !17
  %124 = icmp ne ptr %123, null
  br i1 %124, label %126, label %125

125:                                              ; preds = %116
  store i32 -12, ptr %4, align 4
  store i32 1, ptr %13, align 4
  br label %131

126:                                              ; preds = %116
  %127 = load ptr, ptr %7, align 8, !tbaa !18
  %128 = load ptr, ptr %12, align 8, !tbaa !17
  %129 = load ptr, ptr %11, align 8, !tbaa !17
  %130 = call i32 @av_dict_set(ptr noundef %127, ptr noundef %128, ptr noundef %129, i32 noundef 4)
  store i32 0, ptr %4, align 4
  store i32 1, ptr %13, align 4
  br label %131

131:                                              ; preds = %126, %125, %115, %108, %32, %21
  call void @llvm.lifetime.end.p0(i64 8, ptr %12) #11
  call void @llvm.lifetime.end.p0(i64 8, ptr %11) #11
  call void @llvm.lifetime.end.p0(i64 8, ptr %10) #11
  call void @llvm.lifetime.end.p0(i64 8, ptr %9) #11
  call void @llvm.lifetime.end.p0(i64 8, ptr %8) #11
  %132 = load i32, ptr %4, align 4
  ret i32 %132
}