; Function Attrs: nounwind uwtable
define internal fastcc range(i32 -22, 1) i32 @parse_cookie(ptr noundef %0, ptr noundef %1) unnamed_addr #2 {
  %3 = alloca [19 x i8], align 16
  %4 = alloca ptr, align 8
  %5 = alloca %struct.tm, align 8
  %6 = alloca ptr, align 8
  %7 = alloca %struct.tm, align 8
  call void @llvm.lifetime.start.p0(i64 8, ptr nonnull %4) #15
  store ptr null, ptr %4, align 8, !tbaa !15
  %8 = call fastcc i32 @parse_set_cookie(ptr noundef %0, ptr noundef %4)
  %.not = icmp eq i32 %8, 0
  br i1 %.not, label %9, label %85

9:                                                ; preds = %2
  %10 = load ptr, ptr %4, align 8, !tbaa !15
  %11 = call ptr @av_dict_iterate(ptr noundef %10, ptr noundef null) #15
  %.not37 = icmp eq ptr %11, null
  br i1 %.not37, label %15, label %12

12:                                               ; preds = %9
  %13 = getelementptr inbounds nuw i8, ptr %11, i64 8
  %14 = load ptr, ptr %13, align 8, !tbaa !39
  %.not38 = icmp eq ptr %14, null
  br i1 %.not38, label %15, label %16

15:                                               ; preds = %12, %9
  call void @av_dict_free(ptr noundef nonnull %4) #15
  br label %85

16:                                               ; preds = %12
  %17 = load ptr, ptr %4, align 8, !tbaa !15
  %18 = call ptr @av_dict_get(ptr noundef %17, ptr noundef nonnull @.str.55, ptr noundef null, i32 noundef 0) #15
  %.not39 = icmp eq ptr %18, null
  br i1 %.not39, label %76, label %19

19:                                               ; preds = %16
  %20 = getelementptr inbounds nuw i8, ptr %18, i64 8
  %21 = load ptr, ptr %20, align 8, !tbaa !39
  %.not40 = icmp eq ptr %21, null
  br i1 %.not40, label %76, label %22

22:                                               ; preds = %19
  call void @llvm.lifetime.start.p0(i64 56, ptr nonnull %5) #15
  call void @llvm.memset.p0.i64(ptr noundef nonnull align 8 dereferenceable(56) %5, i8 0, i64 56, i1 false)
  call void @llvm.lifetime.start.p0(i64 19, ptr nonnull %3) #15
  %23 = load i8, ptr %21, align 1, !tbaa !44
  %.not42.i = icmp eq i8 %23, 0
  br i1 %.not42.i, label %._crit_edge.i, label %.lr.ph.i

.lr.ph.i:                                         ; preds = %22, %33
  %indvars.iv.i = phi i64 [ %indvars.iv.next.i, %33 ], [ 0, %22 ]
  %24 = phi i8 [ %35, %33 ], [ %23, %22 ]
  %.02840.i = phi i32 [ %.1.i, %33 ], [ 0, %22 ]
  %25 = add i8 %24, -48
  %or.cond.i = icmp ult i8 %25, 10
  %26 = and i8 %24, -33
  %27 = add i8 %26, -65
  %28 = icmp ult i8 %27, 26
  %or.cond39.i = or i1 %or.cond.i, %28
  br i1 %or.cond39.i, label %29, label %33

29:                                               ; preds = %.lr.ph.i
  %30 = sext i32 %.02840.i to i64
  %31 = getelementptr inbounds [19 x i8], ptr %3, i64 0, i64 %30
  store i8 %24, ptr %31, align 1, !tbaa !44
  %32 = add nsw i32 %.02840.i, 1
  br label %33

33:                                               ; preds = %29, %.lr.ph.i
  %.1.i = phi i32 [ %32, %29 ], [ %.02840.i, %.lr.ph.i ]
  %indvars.iv.next.i = add nuw nsw i64 %indvars.iv.i, 1
  %34 = getelementptr inbounds nuw i8, ptr %21, i64 %indvars.iv.next.i
  %35 = load i8, ptr %34, align 1, !tbaa !44
  %36 = icmp ne i8 %35, 0
  %37 = icmp slt i32 %.1.i, 18
  %38 = select i1 %36, i1 %37, i1 false
  br i1 %38, label %.lr.ph.i, label %._crit_edge.loopexit.i, !llvm.loop !64

._crit_edge.loopexit.i:                           ; preds = %33
  %39 = sext i32 %.1.i to i64
  br label %._crit_edge.i

._crit_edge.i:                                    ; preds = %._crit_edge.loopexit.i, %22
  %.028.lcssa.i = phi i64 [ 0, %22 ], [ %39, %._crit_edge.loopexit.i ]
  %40 = getelementptr inbounds [19 x i8], ptr %3, i64 0, i64 %.028.lcssa.i
  store i8 0, ptr %40, align 1, !tbaa !44
  br label %41

41:                                               ; preds = %41, %._crit_edge.i
  %.0.i = phi ptr [ %3, %._crit_edge.i ], [ %44, %41 ]
  %42 = load i8, ptr %.0.i, align 1, !tbaa !44
  %43 = add i8 %42, -48
  %or.cond36.i = icmp ult i8 %43, 10
  %.not.i = icmp eq i8 %42, 0
  %or.cond37.i = or i1 %.not.i, %or.cond36.i
  %44 = getelementptr inbounds nuw i8, ptr %.0.i, i64 1
  br i1 %or.cond37.i, label %parse_http_date.exit, label %41, !llvm.loop !65

parse_http_date.exit:                             ; preds = %41
  %45 = call ptr @av_small_strptime(ptr noundef nonnull %.0.i, ptr noundef nonnull @.str.63, ptr noundef nonnull %5) #15
  %.not33.i.not = icmp eq ptr %45, null
  call void @llvm.lifetime.end.p0(i64 19, ptr nonnull %3) #15
  br i1 %.not33.i.not, label %.thread, label %46

46:                                               ; preds = %parse_http_date.exit
  %47 = call i64 @av_timegm(ptr noundef nonnull %5) #15
  %48 = call i64 @av_gettime() #15
  %49 = sdiv i64 %48, 1000000
  %50 = icmp slt i64 %47, %49
  br i1 %50, label %51, label %52

51:                                               ; preds = %46
  call void @av_dict_free(ptr noundef nonnull %4) #15
  br label %75

52:                                               ; preds = %46
  %53 = load ptr, ptr %1, align 8, !tbaa !15
  %54 = load ptr, ptr %11, align 8, !tbaa !66
  %55 = call ptr @av_dict_get(ptr noundef %53, ptr noundef %54, ptr noundef null, i32 noundef 0) #15
  %.not42 = icmp eq ptr %55, null
  br i1 %.not42, label %.thread, label %56

56:                                               ; preds = %52
  %57 = getelementptr inbounds nuw i8, ptr %55, i64 8
  %58 = load ptr, ptr %57, align 8, !tbaa !39
  %.not43 = icmp eq ptr %58, null
  br i1 %.not43, label %.thread, label %59

59:                                               ; preds = %56
  call void @llvm.lifetime.start.p0(i64 8, ptr nonnull %6) #15
  store ptr null, ptr %6, align 8, !tbaa !15
  %60 = call fastcc i32 @parse_set_cookie(ptr noundef %0, ptr noundef %6)
  %.not44 = icmp eq i32 %60, 0
  br i1 %.not44, label %61, label %.critedge51

61:                                               ; preds = %59
  %62 = load ptr, ptr %6, align 8, !tbaa !15
  %63 = call ptr @av_dict_get(ptr noundef %62, ptr noundef nonnull @.str.55, ptr noundef null, i32 noundef 0) #15
  %.not45 = icmp eq ptr %63, null
  br i1 %.not45, label %.critedge51, label %64

64:                                               ; preds = %61
  %65 = getelementptr inbounds nuw i8, ptr %63, i64 8
  %66 = load ptr, ptr %65, align 8, !tbaa !39
  %.not46 = icmp eq ptr %66, null
  br i1 %.not46, label %.critedge51, label %67

67:                                               ; preds = %64
  call void @llvm.lifetime.start.p0(i64 56, ptr nonnull %7) #15
  call void @llvm.memset.p0.i64(ptr noundef nonnull align 8 dereferenceable(56) %7, i8 0, i64 56, i1 false)
  %68 = load ptr, ptr %20, align 8, !tbaa !39
  %69 = call fastcc i32 @parse_http_date(ptr noundef %68, ptr noundef %7)
  %.not47 = icmp eq i32 %69, 0
  br i1 %.not47, label %70, label %74

70:                                               ; preds = %67
  %71 = call i64 @av_timegm(ptr noundef nonnull %5) #15
  %72 = call i64 @av_timegm(ptr noundef nonnull %7) #15
  %73 = icmp slt i64 %71, %72
  br i1 %73, label %.critedge, label %74

.critedge:                                        ; preds = %70
  call void @av_dict_free(ptr noundef nonnull %4) #15
  call void @av_dict_free(ptr noundef nonnull %6) #15
  call void @llvm.lifetime.end.p0(i64 56, ptr nonnull %7) #15
  call void @llvm.lifetime.end.p0(i64 8, ptr nonnull %6) #15
  br label %75

74:                                               ; preds = %67, %70
  call void @llvm.lifetime.end.p0(i64 56, ptr nonnull %7) #15
  br label %.critedge51

.critedge51:                                      ; preds = %74, %61, %64, %59
  call void @av_dict_free(ptr noundef nonnull %6) #15
  call void @llvm.lifetime.end.p0(i64 8, ptr nonnull %6) #15
  br label %.thread

.thread:                                          ; preds = %parse_http_date.exit, %.critedge51, %56, %52
  call void @llvm.lifetime.end.p0(i64 56, ptr nonnull %5) #15
  br label %76

75:                                               ; preds = %51, %.critedge
  %.7 = phi i32 [ 0, %51 ], [ -1, %.critedge ]
  call void @llvm.lifetime.end.p0(i64 56, ptr nonnull %5) #15
  br label %85

76:                                               ; preds = %.thread, %19, %16
  call void @av_dict_free(ptr noundef nonnull %4) #15
  %77 = call ptr @strchr(ptr noundef nonnull dereferenceable(1) %0, i32 noundef 61) #16
  %.not48 = icmp eq ptr %77, null
  br i1 %.not48, label %85, label %78

78:                                               ; preds = %76
  %79 = ptrtoint ptr %77 to i64
  %80 = ptrtoint ptr %0 to i64
  %81 = sub i64 %79, %80
  %82 = call noalias ptr @av_strndup(ptr noundef nonnull %0, i64 noundef %81) #15
  %.not49 = icmp eq ptr %82, null
  br i1 %.not49, label %85, label %83

83:                                               ; preds = %78
  %84 = call i32 @av_dict_set(ptr noundef %1, ptr noundef nonnull %82, ptr noundef nonnull %77, i32 noundef 4) #15
  br label %85

85:                                               ; preds = %75, %78, %76, %2, %83, %15
  %.027 = phi i32 [ 0, %83 ], [ %.7, %75 ], [ -1, %15 ], [ -1, %2 ], [ -22, %76 ], [ -12, %78 ]
  call void @llvm.lifetime.end.p0(i64 8, ptr nonnull %4) #15
  ret i32 %.027
}